target datalayout = "e-m:e-p270:32:32-p271:32:32-p272:64:64-i64:64-i128:128-f80:128-n8:16:32:64-S128"
target triple = "x86_64-pc-linux-gnu"

%struct.jsmntok_t = type { i32, i32, i32, i32 }

; Function Attrs: null_pointer_is_valid sspstrong uwtable
define zeroext i1 @json_get_double(ptr noundef %0, ptr noundef %1, ptr noundef %2, ptr noundef %3) #0 {
  %5 = alloca i1, align 1
  %6 = alloca ptr, align 8
  %7 = alloca ptr, align 8
  %8 = alloca ptr, align 8
  %9 = alloca ptr, align 8
  %10 = alloca i32, align 4
  %11 = alloca ptr, align 8
  %12 = alloca i32, align 4
  store ptr %0, ptr %6, align 8
  store ptr %1, ptr %7, align 8
  store ptr %2, ptr %8, align 8
  store ptr %3, ptr %9, align 8
  call void @llvm.lifetime.start.p0(i64 4, ptr %10) #9
  call void @llvm.lifetime.start.p0(i64 8, ptr %11) #9
  %13 = load ptr, ptr %7, align 8
  %14 = getelementptr %struct.jsmntok_t, ptr %13, i64 1
  store ptr %14, ptr %11, align 8
  store i32 0, ptr %10, align 4
  br label %15

15:                                               ; preds = %92, %4
  %16 = load i32, ptr %10, align 4
  %17 = load ptr, ptr %7, align 8
  %18 = getelementptr inbounds nuw %struct.jsmntok_t, ptr %17, i32 0, i32 3
  %19 = load i32, ptr %18, align 4
  %20 = icmp slt i32 %16, %19
  br i1 %20, label %21, label %95

21:                                               ; preds = %15
  %22 = load ptr, ptr %11, align 8
  %23 = getelementptr inbounds nuw %struct.jsmntok_t, ptr %22, i32 0, i32 0
  %24 = load i32, ptr %23, align 4
  %25 = icmp eq i32 %24, 3
  br i1 %25, label %26, label %89

26:                                               ; preds = %21
  %27 = load ptr, ptr %6, align 8
  %28 = load ptr, ptr %11, align 8
  %29 = getelementptr inbounds nuw %struct.jsmntok_t, ptr %28, i32 0, i32 1
  %30 = load i32, ptr %29, align 4
  %31 = sext i32 %30 to i64
  %32 = getelementptr i8, ptr %27, i64 %31
  %33 = load ptr, ptr %8, align 8
  %34 = load ptr, ptr %11, align 8
  %35 = getelementptr inbounds nuw %struct.jsmntok_t, ptr %34, i32 0, i32 2
  %36 = load i32, ptr %35, align 4
  %37 = load ptr, ptr %11, align 8
  %38 = getelementptr inbounds nuw %struct.jsmntok_t, ptr %37, i32 0, i32 1
  %39 = load i32, ptr %38, align 4
  %40 = sub i32 %36, %39
  %41 = sext i32 %40 to i64
  %42 = call i32 @strncmp(ptr noundef %32, ptr noundef %33, i64 noundef %41) #12
  %43 = icmp ne i32 %42, 0
  br i1 %43, label %89, label %44

44:                                               ; preds = %26
  %45 = load ptr, ptr %8, align 8
  %46 = call i64 @strlen(ptr noundef %45) #12
  %47 = load ptr, ptr %11, align 8
  %48 = getelementptr inbounds nuw %struct.jsmntok_t, ptr %47, i32 0, i32 2
  %49 = load i32, ptr %48, align 4
  %50 = load ptr, ptr %11, align 8
  %51 = getelementptr inbounds nuw %struct.jsmntok_t, ptr %50, i32 0, i32 1
  %52 = load i32, ptr %51, align 4
  %53 = sub i32 %49, %52
  %54 = sext i32 %53 to i64
  %55 = icmp eq i64 %46, %54
  br i1 %55, label %56, label %89

56:                                               ; preds = %44
  %57 = load ptr, ptr %11, align 8
  %58 = getelementptr inbounds nuw %struct.jsmntok_t, ptr %57, i32 0, i32 3
  %59 = load i32, ptr %58, align 4
  %60 = icmp eq i32 %59, 1
  br i1 %60, label %61, label %89

61:                                               ; preds = %56
  %62 = load ptr, ptr %11, align 8
  %63 = getelementptr %struct.jsmntok_t, ptr %62, i64 1
  %64 = getelementptr inbounds nuw %struct.jsmntok_t, ptr %63, i32 0, i32 0
  %65 = load i32, ptr %64, align 4
  %66 = icmp eq i32 %65, 4
  br i1 %66, label %67, label %89

67:                                               ; preds = %61
  %68 = load ptr, ptr %6, align 8
  %69 = load ptr, ptr %11, align 8
  %70 = getelementptr %struct.jsmntok_t, ptr %69, i64 1
  %71 = getelementptr inbounds nuw %struct.jsmntok_t, ptr %70, i32 0, i32 2
  %72 = load i32, ptr %71, align 4
  %73 = sext i32 %72 to i64
  %74 = getelementptr i8, ptr %68, i64 %73
  store i8 0, ptr %74, align 1
  %75 = load ptr, ptr %6, align 8
  %76 = load ptr, ptr %11, align 8
  %77 = getelementptr %struct.jsmntok_t, ptr %76, i64 1
  %78 = getelementptr inbounds nuw %struct.jsmntok_t, ptr %77, i32 0, i32 1
  %79 = load i32, ptr %78, align 4
  %80 = sext i32 %79 to i64
  %81 = getelementptr i8, ptr %75, i64 %80
  %82 = call double @g_ascii_strtod(ptr noundef %81, ptr noundef null)
  %83 = load ptr, ptr %9, align 8
  store double %82, ptr %83, align 8
  %84 = call ptr @__errno_location() #13
  %85 = load i32, ptr %84, align 4
  %86 = icmp ne i32 %85, 0
  br i1 %86, label %87, label %88

87:                                               ; preds = %67
  store i1 false, ptr %5, align 1
  store i32 1, ptr %12, align 4
  br label %96

88:                                               ; preds = %67
  store i1 true, ptr %5, align 1
  store i32 1, ptr %12, align 4
  br label %96

89:                                               ; preds = %61, %56, %44, %26, %21
  %90 = load ptr, ptr %11, align 8
  %91 = call ptr @json_get_next_object(ptr noundef %90)
  store ptr %91, ptr %11, align 8
  br label %92

92:                                               ; preds = %89
  %93 = load i32, ptr %10, align 4
  %94 = add i32 %93, 1
  store i32 %94, ptr %10, align 4
  br label %15, !llvm.loop !17

95:                                               ; preds = %15
  store i1 false, ptr %5, align 1
  store i32 1, ptr %12, align 4
  br label %96

96:                                               ; preds = %95, %88, %87
  call void @llvm.lifetime.end.p0(i64 8, ptr %11) #9
  call void @llvm.lifetime.end.p0(i64 4, ptr %10) #9
  %97 = load i1, ptr %5, align 1
  ret i1 %97
}