; Function Attrs: null_pointer_is_valid sspstrong uwtable
define zeroext i1 @json_get_double(ptr noundef %0, ptr noundef readonly %1, ptr noundef readonly captures(none) %2, ptr noundef writeonly captures(none) %3) local_unnamed_addr #0 {
  %5 = getelementptr inbounds nuw i8, ptr %1, i64 12
  %6 = load i32, ptr %5, align 4
  %7 = icmp sgt i32 %6, 0
  br i1 %7, label %.lr.ph.preheader, label %.loopexit

.lr.ph.preheader:                                 ; preds = %4
  %8 = getelementptr i8, ptr %1, i64 16
  br label %.lr.ph

.lr.ph:                                           ; preds = %.lr.ph.preheader, %44
  %.026 = phi ptr [ %45, %44 ], [ %8, %.lr.ph.preheader ]
  %.02125 = phi i32 [ %46, %44 ], [ 0, %.lr.ph.preheader ]
  %9 = load i32, ptr %.026, align 4
  %10 = icmp eq i32 %9, 3
  br i1 %10, label %11, label %44

11:                                               ; preds = %.lr.ph
  %12 = getelementptr inbounds nuw i8, ptr %.026, i64 4
  %13 = load i32, ptr %12, align 4
  %14 = sext i32 %13 to i64
  %15 = getelementptr i8, ptr %0, i64 %14
  %16 = getelementptr inbounds nuw i8, ptr %.026, i64 8
  %17 = load i32, ptr %16, align 4
  %18 = sub i32 %17, %13
  %19 = sext i32 %18 to i64
  %20 = tail call i32 @strncmp(ptr noundef %15, ptr noundef %2, i64 noundef %19) #12
  %.not = icmp eq i32 %20, 0
  br i1 %.not, label %21, label %44

21:                                               ; preds = %11
  %22 = tail call i64 @strlen(ptr noundef %2) #12
  %23 = icmp eq i64 %22, %19
  br i1 %23, label %24, label %44

24:                                               ; preds = %21
  %25 = getelementptr inbounds nuw i8, ptr %.026, i64 12
  %26 = load i32, ptr %25, align 4
  %27 = icmp eq i32 %26, 1
  br i1 %27, label %28, label %44

28:                                               ; preds = %24
  %29 = getelementptr i8, ptr %.026, i64 16
  %30 = load i32, ptr %29, align 4
  %31 = icmp eq i32 %30, 4
  br i1 %31, label %32, label %44

32:                                               ; preds = %28
  %33 = getelementptr i8, ptr %.026, i64 24
  %34 = load i32, ptr %33, align 4
  %35 = sext i32 %34 to i64
  %36 = getelementptr i8, ptr %0, i64 %35
  store i8 0, ptr %36, align 1
  %37 = getelementptr i8, ptr %.026, i64 20
  %38 = load i32, ptr %37, align 4
  %39 = sext i32 %38 to i64
  %40 = getelementptr i8, ptr %0, i64 %39
  %41 = tail call double @g_ascii_strtod(ptr noundef %40, ptr noundef null)
  store double %41, ptr %3, align 8
  %42 = tail call ptr @__errno_location() #13
  %43 = load i32, ptr %42, align 4
  %.not23 = icmp eq i32 %43, 0
  br label %.loopexit

44:                                               ; preds = %28, %24, %21, %11, %.lr.ph
  %45 = tail call fastcc ptr @json_get_next_object(ptr noundef %.026)
  %46 = add nuw nsw i32 %.02125, 1
  %exitcond.not = icmp eq i32 %46, %6
  br i1 %exitcond.not, label %.loopexit, label %.lr.ph, !llvm.loop !15

.loopexit:                                        ; preds = %44, %4, %32
  %.022 = phi i1 [ %.not23, %32 ], [ false, %4 ], [ false, %44 ]
  ret i1 %.022
}